; Function Attrs: nounwind uwtable
define internal fastcc ptr @NameOfDatum(ptr noundef nonnull readonly captures(none) %0) unnamed_addr #0 {
  %2 = getelementptr inbounds nuw i8, ptr %0, i64 8
  %3 = load ptr, ptr %2, align 8
  %.not = icmp eq ptr %3, null
  br i1 %.not, label %4, label %8

4:                                                ; preds = %1
  %5 = getelementptr inbounds nuw i8, ptr %0, i64 24
  %6 = load ptr, ptr %5, align 8
  %7 = tail call ptr @NameListToString(ptr noundef %6) #12
  br label %8

8:                                                ; preds = %1, %4
  %.0 = phi ptr [ %7, %4 ], [ %3, %1 ]
  ret ptr %.0
}